target datalayout = "e-m:e-p270:32:32-p271:32:32-p272:64:64-i64:64-i128:128-f80:128-n8:16:32:64-S128"
target triple = "x86_64-unknown-linux-gnu"

%"class.node::profiler::V8ProfilerConnection" = type { ptr, %"class.std::unique_ptr", i32, %"class.std::unordered_set", ptr }
%"class.std::unique_ptr" = type { %"struct.std::__uniq_ptr_data" }
%"struct.std::__uniq_ptr_data" = type { %"class.std::__uniq_ptr_impl" }
%"class.std::__uniq_ptr_impl" = type { %"class.std::tuple" }
%"class.std::tuple" = type { %"struct.std::_Tuple_impl" }
%"struct.std::_Tuple_impl" = type { %"struct.std::_Head_base.1" }
%"struct.std::_Head_base.1" = type { ptr }
%"class.std::unordered_set" = type { %"class.std::_Hashtable" }
%"class.std::_Hashtable" = type { ptr, i64, %"struct.std::__detail::_Hash_node_base", i64, %"struct.std::__detail::_Prime_rehash_policy", ptr }
%"struct.std::__detail::_Hash_node_base" = type { ptr }
%"struct.std::__detail::_Prime_rehash_policy" = type { float, i64 }
%"class.node::Environment" = type { %"class.node::MemoryRetainer", %"class.std::unordered_multimap", %"class.std::__cxx11::list", ptr, ptr, %struct.uv_timer_s, %struct.uv_check_s, %struct.uv_idle_s, %struct.uv_prepare_s, %struct.uv_check_s, %struct.uv_async_s, i64, %"struct.std::atomic", %"struct.std::atomic", %"class.node::AsyncHooks", %"class.node::ImmediateInfo", %"class.node::AliasedBufferBase.63", %"class.node::TickInfo", %"class.node::permission::Permission", i64, %"class.std::shared_ptr.88", i8, i8, i8, i8, i8, i8, i64, %"class.std::vector.91", %"class.std::unordered_set.96", %"class.std::unique_ptr.116", %"class.std::unique_ptr.124", %"class.std::__cxx11::basic_string", %"class.std::__cxx11::basic_string", %"class.std::__cxx11::basic_string", i64, %"class.std::unique_ptr.132", %"class.std::__cxx11::basic_string", %"class.std::__cxx11::basic_string", i64, %"class.std::shared_ptr.140", %"class.std::shared_ptr.23", %"class.std::vector.143", %"class.std::vector.143", %"class.std::__cxx11::basic_string", i8, i32, i32, i8, i32, i32, i32, i32, %"class.node::AliasedBufferBase.63", %"class.node::AliasedBufferBase.53", i32, %"class.std::unique_ptr.148", %"class.node::AliasedBufferBase.63", i64, double, i64, %"class.std::unique_ptr.156", i8, i64, i64, %"class.std::unordered_set.164", %"class.std::unique_ptr.184", i8, %"class.std::__cxx11::list.192", %"class.node::ListHead", %"class.node::ListHead.197", %"class.std::__cxx11::list.199", i32, i32, %"class.node::EnabledDebugList", %"class.std::vector.204", %"class.std::__cxx11::list.209", %"class.node::MutexBase", %"class.std::__cxx11::list.214", %"class.node::CallbackQueue", %"class.node::MutexBase", %"class.node::CallbackQueue", %"class.node::CallbackQueue", i8, %"struct.std::atomic.229", %"class.node::CleanupQueue", i8, %"class.std::unordered_set.247", %"class.std::function", %"class.std::unique_ptr.262", %"class.node::builtins::BuiltinLoader", %"class.std::function.276", %"class.std::unordered_map.278" }
%"class.node::MemoryRetainer" = type { ptr }
%"class.std::unordered_multimap" = type { %"class.std::_Hashtable.26" }
%"class.std::_Hashtable.26" = type { ptr, i64, %"struct.std::__detail::_Hash_node_base", i64, %"struct.std::__detail::_Prime_rehash_policy", ptr }
%"class.std::__cxx11::list" = type { %"class.std::__cxx11::_List_base" }
%"class.std::__cxx11::_List_base" = type { %"struct.std::__cxx11::_List_base<node::binding::DLib, std::allocator<node::binding::DLib>>::_List_impl" }
%"struct.std::__cxx11::_List_base<node::binding::DLib, std::allocator<node::binding::DLib>>::_List_impl" = type { %"struct.std::__detail::_List_node_header" }
%"struct.std::__detail::_List_node_header" = type { %"struct.std::__detail::_List_node_base", i64 }
%"struct.std::__detail::_List_node_base" = type { ptr, ptr }
%struct.uv_timer_s = type { ptr, ptr, i32, ptr, %struct.uv__queue, %union.anon.48, ptr, i32, ptr, [3 x ptr], i64, i64, i64 }
%struct.uv__queue = type { ptr, ptr }
%union.anon.48 = type { [4 x ptr] }
%struct.uv_idle_s = type { ptr, ptr, i32, ptr, %struct.uv__queue, %union.anon.50, ptr, i32, ptr, %struct.uv__queue }
%union.anon.50 = type { [4 x ptr] }
%struct.uv_prepare_s = type { ptr, ptr, i32, ptr, %struct.uv__queue, %union.anon.51, ptr, i32, ptr, %struct.uv__queue }
%union.anon.51 = type { [4 x ptr] }
%struct.uv_check_s = type { ptr, ptr, i32, ptr, %struct.uv__queue, %union.anon.49, ptr, i32, ptr, %struct.uv__queue }
%union.anon.49 = type { [4 x ptr] }
%struct.uv_async_s = type { ptr, ptr, i32, ptr, %struct.uv__queue, %union.anon.52, ptr, i32, ptr, %struct.uv__queue, i32 }
%union.anon.52 = type { [4 x ptr] }
%"struct.std::atomic" = type { %"struct.std::__atomic_base" }
%"struct.std::__atomic_base" = type { i8 }
%"class.node::AsyncHooks" = type { %"class.node::MemoryRetainer", %"class.node::AliasedBufferBase", %"class.node::AliasedBufferBase.53", %"class.node::AliasedBufferBase", %"class.v8::Global.56", %"class.std::vector", ptr, %"struct.std::array" }
%"class.node::AliasedBufferBase" = type { %"class.node::MemoryRetainer", ptr, i64, i64, ptr, %"class.v8::Global", ptr }
%"class.v8::Global" = type { %"class.v8::PersistentBase" }
%"class.v8::PersistentBase" = type { %"class.v8::IndirectHandleBase" }
%"class.v8::IndirectHandleBase" = type { ptr }
%"class.v8::Global.56" = type { %"class.v8::PersistentBase.57" }
%"class.v8::PersistentBase.57" = type { %"class.v8::IndirectHandleBase" }
%"class.std::vector" = type { %"struct.std::_Vector_base" }
%"struct.std::_Vector_base" = type { %"struct.std::_Vector_base<v8::Local<v8::Object>, std::allocator<v8::Local<v8::Object>>>::_Vector_impl" }
%"struct.std::_Vector_base<v8::Local<v8::Object>, std::allocator<v8::Local<v8::Object>>>::_Vector_impl" = type { %"struct.std::_Vector_base<v8::Local<v8::Object>, std::allocator<v8::Local<v8::Object>>>::_Vector_impl_data" }
%"struct.std::_Vector_base<v8::Local<v8::Object>, std::allocator<v8::Local<v8::Object>>>::_Vector_impl_data" = type { ptr, ptr, ptr }
%"struct.std::array" = type { [4 x %"class.v8::Global.61"] }
%"class.v8::Global.61" = type { %"class.v8::PersistentBase.62" }
%"class.v8::PersistentBase.62" = type { %"class.v8::IndirectHandleBase" }
%"class.node::ImmediateInfo" = type { %"class.node::MemoryRetainer", %"class.node::AliasedBufferBase.53" }
%"class.node::TickInfo" = type { %"class.node::MemoryRetainer", %"class.node::AliasedBufferBase.66" }
%"class.node::AliasedBufferBase.66" = type { %"class.node::MemoryRetainer", ptr, i64, i64, ptr, %"class.v8::Global.67", ptr }
%"class.v8::Global.67" = type { %"class.v8::PersistentBase.68" }
%"class.v8::PersistentBase.68" = type { %"class.v8::IndirectHandleBase" }
%"class.node::permission::Permission" = type <{ %"class.std::unordered_map", i8, [7 x i8] }>
%"class.std::unordered_map" = type { %"class.std::_Hashtable.69" }
%"class.std::_Hashtable.69" = type { ptr, i64, %"struct.std::__detail::_Hash_node_base", i64, %"struct.std::__detail::_Prime_rehash_policy", ptr }
%"class.std::shared_ptr.88" = type { %"class.std::__shared_ptr.89" }
%"class.std::__shared_ptr.89" = type { ptr, %"class.std::__shared_count" }
%"class.std::__shared_count" = type { ptr }
%"class.std::vector.91" = type { %"struct.std::_Vector_base.92" }
%"struct.std::_Vector_base.92" = type { %"struct.std::_Vector_base<double, std::allocator<double>>::_Vector_impl" }
%"struct.std::_Vector_base<double, std::allocator<double>>::_Vector_impl" = type { %"struct.std::_Vector_base<double, std::allocator<double>>::_Vector_impl_data" }
%"struct.std::_Vector_base<double, std::allocator<double>>::_Vector_impl_data" = type { ptr, ptr, ptr }
%"class.std::unordered_set.96" = type { %"class.std::_Hashtable.97" }
%"class.std::_Hashtable.97" = type { ptr, i64, %"struct.std::__detail::_Hash_node_base", i64, %"struct.std::__detail::_Prime_rehash_policy", ptr }
%"class.std::unique_ptr.116" = type { %"struct.std::__uniq_ptr_data.117" }
%"struct.std::__uniq_ptr_data.117" = type { %"class.std::__uniq_ptr_impl.118" }
%"class.std::__uniq_ptr_impl.118" = type { %"class.std::tuple.119" }
%"class.std::tuple.119" = type { %"struct.std::_Tuple_impl.120" }
%"struct.std::_Tuple_impl.120" = type { %"struct.std::_Head_base.123" }
%"struct.std::_Head_base.123" = type { ptr }
%"class.std::unique_ptr.124" = type { %"struct.std::__uniq_ptr_data.125" }
%"struct.std::__uniq_ptr_data.125" = type { %"class.std::__uniq_ptr_impl.126" }
%"class.std::__uniq_ptr_impl.126" = type { %"class.std::tuple.127" }
%"class.std::tuple.127" = type { %"struct.std::_Tuple_impl.128" }
%"struct.std::_Tuple_impl.128" = type { %"struct.std::_Head_base.131" }
%"struct.std::_Head_base.131" = type { ptr }
%"class.std::unique_ptr.132" = type { %"struct.std::__uniq_ptr_data.133" }
%"struct.std::__uniq_ptr_data.133" = type { %"class.std::__uniq_ptr_impl.134" }
%"class.std::__uniq_ptr_impl.134" = type { %"class.std::tuple.135" }
%"class.std::tuple.135" = type { %"struct.std::_Tuple_impl.136" }
%"struct.std::_Tuple_impl.136" = type { %"struct.std::_Head_base.139" }
%"struct.std::_Head_base.139" = type { ptr }
%"class.std::shared_ptr.140" = type { %"class.std::__shared_ptr.141" }
%"class.std::__shared_ptr.141" = type { ptr, %"class.std::__shared_count" }
%"class.std::shared_ptr.23" = type { %"class.std::__shared_ptr.24" }
%"class.std::__shared_ptr.24" = type { ptr, %"class.std::__shared_count" }
%"class.std::vector.143" = type { %"struct.std::_Vector_base.144" }
%"struct.std::_Vector_base.144" = type { %"struct.std::_Vector_base<std::__cxx11::basic_string<char>, std::allocator<std::__cxx11::basic_string<char>>>::_Vector_impl" }
%"struct.std::_Vector_base<std::__cxx11::basic_string<char>, std::allocator<std::__cxx11::basic_string<char>>>::_Vector_impl" = type { %"struct.std::_Vector_base<std::__cxx11::basic_string<char>, std::allocator<std::__cxx11::basic_string<char>>>::_Vector_impl_data" }
%"struct.std::_Vector_base<std::__cxx11::basic_string<char>, std::allocator<std::__cxx11::basic_string<char>>>::_Vector_impl_data" = type { ptr, ptr, ptr }
%"class.std::__cxx11::basic_string" = type { %"struct.std::__cxx11::basic_string<char>::_Alloc_hider", i64, %union.anon }
%"struct.std::__cxx11::basic_string<char>::_Alloc_hider" = type { ptr }
%union.anon = type { i64, [8 x i8] }
%"class.node::AliasedBufferBase.53" = type { %"class.node::MemoryRetainer", ptr, i64, i64, ptr, %"class.v8::Global.54", ptr }
%"class.v8::Global.54" = type { %"class.v8::PersistentBase.55" }
%"class.v8::PersistentBase.55" = type { %"class.v8::IndirectHandleBase" }
%"class.std::unique_ptr.148" = type { %"struct.std::__uniq_ptr_data.149" }
%"struct.std::__uniq_ptr_data.149" = type { %"class.std::__uniq_ptr_impl.150" }
%"class.std::__uniq_ptr_impl.150" = type { %"class.std::tuple.151" }
%"class.std::tuple.151" = type { %"struct.std::_Tuple_impl.152" }
%"struct.std::_Tuple_impl.152" = type { %"struct.std::_Head_base.155" }
%"struct.std::_Head_base.155" = type { ptr }
%"class.node::AliasedBufferBase.63" = type { %"class.node::MemoryRetainer", ptr, i64, i64, ptr, %"class.v8::Global.64", ptr }
%"class.v8::Global.64" = type { %"class.v8::PersistentBase.65" }
%"class.v8::PersistentBase.65" = type { %"class.v8::IndirectHandleBase" }
%"class.std::unique_ptr.156" = type { %"struct.std::__uniq_ptr_data.157" }
%"struct.std::__uniq_ptr_data.157" = type { %"class.std::__uniq_ptr_impl.158" }
%"class.std::__uniq_ptr_impl.158" = type { %"class.std::tuple.159" }
%"class.std::tuple.159" = type { %"struct.std::_Tuple_impl.160" }
%"struct.std::_Tuple_impl.160" = type { %"struct.std::_Head_base.163" }
%"struct.std::_Head_base.163" = type { ptr }
%"class.std::unordered_set.164" = type { %"class.std::_Hashtable.165" }
%"class.std::_Hashtable.165" = type { ptr, i64, %"struct.std::__detail::_Hash_node_base", i64, %"struct.std::__detail::_Prime_rehash_policy", ptr }
%"class.std::unique_ptr.184" = type { %"struct.std::__uniq_ptr_data.185" }
%"struct.std::__uniq_ptr_data.185" = type { %"class.std::__uniq_ptr_impl.186" }
%"class.std::__uniq_ptr_impl.186" = type { %"class.std::tuple.187" }
%"class.std::tuple.187" = type { %"struct.std::_Tuple_impl.188" }
%"struct.std::_Tuple_impl.188" = type { %"struct.std::_Head_base.191" }
%"struct.std::_Head_base.191" = type { ptr }
%"class.std::__cxx11::list.192" = type { %"class.std::__cxx11::_List_base.193" }
%"class.std::__cxx11::_List_base.193" = type { %"struct.std::__cxx11::_List_base<node::DeserializeRequest, std::allocator<node::DeserializeRequest>>::_List_impl" }
%"struct.std::__cxx11::_List_base<node::DeserializeRequest, std::allocator<node::DeserializeRequest>>::_List_impl" = type { %"struct.std::__detail::_List_node_header" }
%"class.node::ListHead" = type { %"class.node::ListNode" }
%"class.node::ListNode" = type { ptr, ptr }
%"class.node::ListHead.197" = type { %"class.node::ListNode.198" }
%"class.node::ListNode.198" = type { ptr, ptr }
%"class.std::__cxx11::list.199" = type { %"class.std::__cxx11::_List_base.200" }
%"class.std::__cxx11::_List_base.200" = type { %"struct.std::__cxx11::_List_base<node::Environment::HandleCleanup, std::allocator<node::Environment::HandleCleanup>>::_List_impl" }
%"struct.std::__cxx11::_List_base<node::Environment::HandleCleanup, std::allocator<node::Environment::HandleCleanup>>::_List_impl" = type { %"struct.std::__detail::_List_node_header" }
%"class.node::EnabledDebugList" = type { [75 x i8] }
%"class.std::vector.204" = type { %"struct.std::_Vector_base.205" }
%"struct.std::_Vector_base.205" = type { %"struct.std::_Vector_base<v8::Global<v8::Context>, std::allocator<v8::Global<v8::Context>>>::_Vector_impl" }
%"struct.std::_Vector_base<v8::Global<v8::Context>, std::allocator<v8::Global<v8::Context>>>::_Vector_impl" = type { %"struct.std::_Vector_base<v8::Global<v8::Context>, std::allocator<v8::Global<v8::Context>>>::_Vector_impl_data" }
%"struct.std::_Vector_base<v8::Global<v8::Context>, std::allocator<v8::Global<v8::Context>>>::_Vector_impl_data" = type { ptr, ptr, ptr }
%"class.std::__cxx11::list.209" = type { %"class.std::__cxx11::_List_base.210" }
%"class.std::__cxx11::_List_base.210" = type { %"struct.std::__cxx11::_List_base<node::node_module, std::allocator<node::node_module>>::_List_impl" }
%"struct.std::__cxx11::_List_base<node::node_module, std::allocator<node::node_module>>::_List_impl" = type { %"struct.std::__detail::_List_node_header" }
%"class.std::__cxx11::list.214" = type { %"class.std::__cxx11::_List_base.215" }
%"class.std::__cxx11::_List_base.215" = type { %"struct.std::__cxx11::_List_base<node::Environment::ExitCallback, std::allocator<node::Environment::ExitCallback>>::_List_impl" }
%"struct.std::__cxx11::_List_base<node::Environment::ExitCallback, std::allocator<node::Environment::ExitCallback>>::_List_impl" = type { %"struct.std::__detail::_List_node_header" }
%"class.node::MutexBase" = type { %union.pthread_mutex_t }
%union.pthread_mutex_t = type { %struct.__pthread_mutex_s }
%struct.__pthread_mutex_s = type { i32, i32, i32, i32, i32, i16, i16, %struct.__pthread_internal_list }
%struct.__pthread_internal_list = type { ptr, ptr }
%"class.node::CallbackQueue" = type { %"struct.std::atomic.219", %"class.std::unique_ptr.221", ptr }
%"struct.std::atomic.219" = type { %"struct.std::__atomic_base.220" }
%"struct.std::__atomic_base.220" = type { i64 }
%"class.std::unique_ptr.221" = type { %"struct.std::__uniq_ptr_data.222" }
%"struct.std::__uniq_ptr_data.222" = type { %"class.std::__uniq_ptr_impl.223" }
%"class.std::__uniq_ptr_impl.223" = type { %"class.std::tuple.224" }
%"class.std::tuple.224" = type { %"struct.std::_Tuple_impl.225" }
%"struct.std::_Tuple_impl.225" = type { %"struct.std::_Head_base.228" }
%"struct.std::_Head_base.228" = type { ptr }
%"struct.std::atomic.229" = type { %"struct.std::__atomic_base.230" }
%"struct.std::__atomic_base.230" = type { ptr }
%"class.node::CleanupQueue" = type { %"class.node::MemoryRetainer", %"class.std::unordered_set.231", i64 }
%"class.std::unordered_set.231" = type { %"class.std::_Hashtable.232" }
%"class.std::_Hashtable.232" = type { ptr, i64, %"struct.std::__detail::_Hash_node_base", i64, %"struct.std::__detail::_Prime_rehash_policy", ptr }
%"class.std::unordered_set.247" = type { %"class.std::_Hashtable.248" }
%"class.std::_Hashtable.248" = type { ptr, i64, %"struct.std::__detail::_Hash_node_base", i64, %"struct.std::__detail::_Prime_rehash_policy", ptr }
%"class.std::function" = type { %"class.std::_Function_base", ptr }
%"class.std::_Function_base" = type { %"union.std::_Any_data", ptr }
%"union.std::_Any_data" = type { %"union.std::_Nocopy_types" }
%"union.std::_Nocopy_types" = type { { i64, i64 } }
%"class.std::unique_ptr.262" = type { %"struct.std::__uniq_ptr_data.263" }
%"struct.std::__uniq_ptr_data.263" = type { %"class.std::__uniq_ptr_impl.264" }
%"class.std::__uniq_ptr_impl.264" = type { %"class.std::tuple.265" }
%"class.std::tuple.265" = type { %"struct.std::_Tuple_impl.266" }
%"struct.std::_Tuple_impl.266" = type { %"struct.std::_Head_base.269" }
%"struct.std::_Head_base.269" = type { ptr }
%"class.node::builtins::BuiltinLoader" = type { %"class.node::ThreadsafeCopyOnWrite", %"class.node::UnionBytes", %"class.std::shared_ptr.273" }
%"class.node::ThreadsafeCopyOnWrite" = type { %"class.node::CopyOnWrite" }
%"class.node::CopyOnWrite" = type { %"class.std::shared_ptr.270" }
%"class.std::shared_ptr.270" = type { %"class.std::__shared_ptr.271" }
%"class.std::__shared_ptr.271" = type { ptr, %"class.std::__shared_count" }
%"class.node::UnionBytes" = type { ptr, ptr }
%"class.std::shared_ptr.273" = type { %"class.std::__shared_ptr.274" }
%"class.std::__shared_ptr.274" = type { ptr, %"class.std::__shared_count" }
%"class.std::function.276" = type { %"class.std::_Function_base", ptr }
%"class.std::unordered_map.278" = type { %"class.std::_Hashtable.279" }
%"class.std::_Hashtable.279" = type { ptr, i64, %"struct.std::__detail::_Hash_node_base", i64, %"struct.std::__detail::_Prime_rehash_policy", ptr }
%"class.std::allocator.20" = type { i8 }

@.str.3 = private unnamed_addr constant [3 x i8] c" }\00", align 1
@.str.34 = private unnamed_addr constant [20 x i8] c"HeapProfiler.enable\00", align 1
@.str.35 = private unnamed_addr constant [23 x i8] c"{ \22samplingInterval\22: \00", align 1
@.str.36 = private unnamed_addr constant [27 x i8] c"HeapProfiler.startSampling\00", align 1
@.str.98 = private unnamed_addr constant [50 x i8] c"basic_string: construction from null is not valid\00", align 1

; Function Attrs: mustprogress nounwind uwtable
define linkonce_odr dso_local noundef i64 @_ZNSt11char_traitsIcE6lengthEPKc(ptr noundef %__s) #4 comdat align 2 {
entry:
  %__s.addr = alloca ptr, align 8
  store ptr %__s, ptr %__s.addr, align 8
  %0 = load ptr, ptr %__s.addr, align 8
  %call = call i64 @strlen(ptr noundef %0) #3
  ret i64 %call
}

; Function Attrs: mustprogress nounwind uwtable
define linkonce_odr dso_local noundef i64 @_ZNK4node11Environment18heap_prof_intervalEv(ptr noundef nonnull align 8 dereferenceable(2872) %this) #4 comdat align 2 {
entry:
  %this.addr = alloca ptr, align 8
  store ptr %this, ptr %this.addr, align 8
  %this1 = load ptr, ptr %this.addr, align 8
  %heap_prof_interval_ = getelementptr inbounds %"class.node::Environment", ptr %this1, i32 0, i32 39
  %0 = load i64, ptr %heap_prof_interval_, align 8
  ret i64 %0
}

; Function Attrs: mustprogress nounwind uwtable
define linkonce_odr dso_local noundef ptr @_ZNK4node8profiler20V8ProfilerConnection3envEv(ptr noundef nonnull align 8 dereferenceable(88) %this) #4 comdat align 2 {
entry:
  %this.addr = alloca ptr, align 8
  store ptr %this, ptr %this.addr, align 8
  %this1 = load ptr, ptr %this.addr, align 8
  %env_ = getelementptr inbounds %"class.node::profiler::V8ProfilerConnection", ptr %this1, i32 0, i32 4
  %0 = load ptr, ptr %env_, align 8
  ret ptr %0
}

; Function Attrs: mustprogress nounwind uwtable
define linkonce_odr dso_local void @_ZNSt7__cxx1112basic_stringIcSt11char_traitsIcESaIcEEC2IS3_EEPKcRKS3_(ptr noundef nonnull align 8 dereferenceable(32) %this, ptr noundef %__s, ptr noundef nonnull align 1 dereferenceable(1) %__a) unnamed_addr #4 comdat align 2 {
entry:
  %this.addr = alloca ptr, align 8
  %__s.addr = alloca ptr, align 8
  %__a.addr = alloca ptr, align 8
  %__end = alloca ptr, align 8
  store ptr %this, ptr %this.addr, align 8
  store ptr %__s, ptr %__s.addr, align 8
  store ptr %__a, ptr %__a.addr, align 8
  %this1 = load ptr, ptr %this.addr, align 8
  %_M_dataplus = getelementptr inbounds %"class.std::__cxx11::basic_string", ptr %this1, i32 0, i32 0
  %call = call noundef ptr @_ZNSt7__cxx1112basic_stringIcSt11char_traitsIcESaIcEE13_M_local_dataEv(ptr noundef nonnull align 8 dereferenceable(32) %this1)
  %0 = load ptr, ptr %__a.addr, align 8
  call void @_ZNSt7__cxx1112basic_stringIcSt11char_traitsIcESaIcEE12_Alloc_hiderC1EPcRKS3_(ptr noundef nonnull align 8 dereferenceable(8) %_M_dataplus, ptr noundef %call, ptr noundef nonnull align 1 dereferenceable(1) %0)
  %1 = load ptr, ptr %__s.addr, align 8
  %cmp = icmp eq ptr %1, null
  br i1 %cmp, label %if.then, label %if.end

if.then:                                          ; preds = %entry
  call void @_ZSt19__throw_logic_errorPKc(ptr noundef @.str.98) #16
  unreachable

if.end:                                           ; preds = %entry
  %2 = load ptr, ptr %__s.addr, align 8
  %3 = load ptr, ptr %__s.addr, align 8
  %call2 = call noundef i64 @_ZNSt11char_traitsIcE6lengthEPKc(ptr noundef %3)
  %add.ptr = getelementptr inbounds i8, ptr %2, i64 %call2
  store ptr %add.ptr, ptr %__end, align 8
  %4 = load ptr, ptr %__s.addr, align 8
  %5 = load ptr, ptr %__end, align 8
  call void @_ZNSt7__cxx1112basic_stringIcSt11char_traitsIcESaIcEE12_M_constructIPKcEEvT_S8_St20forward_iterator_tag(ptr noundef nonnull align 8 dereferenceable(32) %this1, ptr noundef %4, ptr noundef %5)
  ret void
}

; Function Attrs: mustprogress nounwind uwtable
define dso_local void @_ZN4node8profiler24V8HeapProfilerConnection5StartEv(ptr noundef nonnull align 8 dereferenceable(97) %this) unnamed_addr #4 align 2 {
entry:
  %this.addr = alloca ptr, align 8
  %params = alloca %"class.std::__cxx11::basic_string", align 8
  %ref.tmp = alloca %"class.std::allocator.20", align 1
  %ref.tmp2 = alloca %"class.std::__cxx11::basic_string", align 8
  store ptr %this, ptr %this.addr, align 8
  %this1 = load ptr, ptr %this.addr, align 8
  %call = call noundef i32 @_ZN4node8profiler20V8ProfilerConnection15DispatchMessageEPKcS3_b(ptr noundef nonnull align 8 dereferenceable(88) %this1, ptr noundef @.str.34, ptr noundef null, i1 noundef zeroext false)
  call void @_ZNSaIcEC1Ev(ptr noundef nonnull align 1 dereferenceable(1) %ref.tmp) #3
  call void @_ZNSt7__cxx1112basic_stringIcSt11char_traitsIcESaIcEEC2IS3_EEPKcRKS3_(ptr noundef nonnull align 8 dereferenceable(32) %params, ptr noundef @.str.35, ptr noundef nonnull align 1 dereferenceable(1) %ref.tmp)
  call void @_ZNSaIcED1Ev(ptr noundef nonnull align 1 dereferenceable(1) %ref.tmp) #3
  %call3 = call noundef ptr @_ZNK4node8profiler20V8ProfilerConnection3envEv(ptr noundef nonnull align 8 dereferenceable(88) %this1)
  %call4 = call noundef i64 @_ZNK4node11Environment18heap_prof_intervalEv(ptr noundef nonnull align 8 dereferenceable(2872) %call3)
  call void @_ZNSt7__cxx119to_stringEm(ptr sret(%"class.std::__cxx11::basic_string") align 8 %ref.tmp2, i64 noundef %call4)
  %call5 = call noundef nonnull align 8 dereferenceable(32) ptr @_ZNSt7__cxx1112basic_stringIcSt11char_traitsIcESaIcEEpLERKS4_(ptr noundef nonnull align 8 dereferenceable(32) %params, ptr noundef nonnull align 8 dereferenceable(32) %ref.tmp2)
  call void @_ZNSt7__cxx1112basic_stringIcSt11char_traitsIcESaIcEED1Ev(ptr noundef nonnull align 8 dereferenceable(32) %ref.tmp2) #3
  %call6 = call noundef nonnull align 8 dereferenceable(32) ptr @_ZNSt7__cxx1112basic_stringIcSt11char_traitsIcESaIcEEpLEPKc(ptr noundef nonnull align 8 dereferenceable(32) %params, ptr noundef @.str.3)
  %call7 = call noundef ptr @_ZNKSt7__cxx1112basic_stringIcSt11char_traitsIcESaIcEE5c_strEv(ptr noundef nonnull align 8 dereferenceable(32) %params) #3
  %call8 = call noundef i32 @_ZN4node8profiler20V8ProfilerConnection15DispatchMessageEPKcS3_b(ptr noundef nonnull align 8 dereferenceable(88) %this1, ptr noundef @.str.36, ptr noundef %call7, i1 noundef zeroext false)
  call void @_ZNSt7__cxx1112basic_stringIcSt11char_traitsIcESaIcEED1Ev(ptr noundef nonnull align 8 dereferenceable(32) %params) #3
  ret void
}