; Function Attrs: mustprogress nounwind uwtable
define dso_local void @_ZN4node8profiler24V8HeapProfilerConnection5StartEv(ptr noundef nonnull align 8 dereferenceable(97) %this) unnamed_addr #3 align 2 {
entry:
  %params = alloca %"class.std::__cxx11::basic_string", align 8
  %ref.tmp = alloca %"class.std::allocator.20", align 1
  %ref.tmp2 = alloca %"class.std::__cxx11::basic_string", align 8
  %call = tail call noundef i32 @_ZN4node8profiler20V8ProfilerConnection15DispatchMessageEPKcS3_b(ptr noundef nonnull align 8 dereferenceable(88) %this, ptr noundef nonnull @.str.34, ptr noundef null, i1 noundef zeroext false)
  call void @_ZNSaIcEC1Ev(ptr noundef nonnull align 1 dereferenceable(1) %ref.tmp) #22
  %call.i = call noundef ptr @_ZNSt7__cxx1112basic_stringIcSt11char_traitsIcESaIcEE13_M_local_dataEv(ptr noundef nonnull align 8 dereferenceable(32) %params) #22
  call void @_ZNSt7__cxx1112basic_stringIcSt11char_traitsIcESaIcEE12_Alloc_hiderC1EPcRKS3_(ptr noundef nonnull align 8 dereferenceable(8) %params, ptr noundef %call.i, ptr noundef nonnull align 1 dereferenceable(1) %ref.tmp) #22
  call void @_ZNSt7__cxx1112basic_stringIcSt11char_traitsIcESaIcEE12_M_constructIPKcEEvT_S8_St20forward_iterator_tag(ptr noundef nonnull align 8 dereferenceable(32) %params, ptr noundef nonnull @.str.35, ptr noundef nonnull getelementptr inbounds ([23 x i8], ptr @.str.35, i64 0, i64 22))
  call void @_ZNSaIcED1Ev(ptr noundef nonnull align 1 dereferenceable(1) %ref.tmp) #22
  %env_.i = getelementptr inbounds i8, ptr %this, i64 80
  %0 = load ptr, ptr %env_.i, align 8
  %heap_prof_interval_.i = getelementptr inbounds i8, ptr %0, i64 1688
  %1 = load i64, ptr %heap_prof_interval_.i, align 8
  call void @_ZNSt7__cxx119to_stringEm(ptr nonnull sret(%"class.std::__cxx11::basic_string") align 8 %ref.tmp2, i64 noundef %1)
  %call5 = call noundef nonnull align 8 dereferenceable(32) ptr @_ZNSt7__cxx1112basic_stringIcSt11char_traitsIcESaIcEEpLERKS4_(ptr noundef nonnull align 8 dereferenceable(32) %params, ptr noundef nonnull align 8 dereferenceable(32) %ref.tmp2) #22
  call void @_ZNSt7__cxx1112basic_stringIcSt11char_traitsIcESaIcEED1Ev(ptr noundef nonnull align 8 dereferenceable(32) %ref.tmp2) #22
  %call6 = call noundef nonnull align 8 dereferenceable(32) ptr @_ZNSt7__cxx1112basic_stringIcSt11char_traitsIcESaIcEEpLEPKc(ptr noundef nonnull align 8 dereferenceable(32) %params, ptr noundef nonnull @.str.3) #22
  %call7 = call noundef ptr @_ZNKSt7__cxx1112basic_stringIcSt11char_traitsIcESaIcEE5c_strEv(ptr noundef nonnull align 8 dereferenceable(32) %params) #22
  %call8 = call noundef i32 @_ZN4node8profiler20V8ProfilerConnection15DispatchMessageEPKcS3_b(ptr noundef nonnull align 8 dereferenceable(88) %this, ptr noundef nonnull @.str.36, ptr noundef %call7, i1 noundef zeroext false)
  call void @_ZNSt7__cxx1112basic_stringIcSt11char_traitsIcESaIcEED1Ev(ptr noundef nonnull align 8 dereferenceable(32) %params) #22
  ret void
}